target datalayout = "e-m:e-p270:32:32-p271:32:32-p272:64:64-i64:64-i128:128-f80:128-n8:16:32:64-S128"
target triple = "x86_64-pc-linux-gnu"

%struct.huffman = type { i32, [17 x i32], ptr, i32, i32, i32, ptr }

; Function Attrs: nounwind uwtable
define internal i32 @lzx_huffman_init(ptr noundef %0, i64 noundef %1, i32 noundef %2) #0 {
  %4 = alloca i32, align 4
  %5 = alloca ptr, align 8
  %6 = alloca i64, align 8
  %7 = alloca i32, align 4
  store ptr %0, ptr %5, align 8, !tbaa !217
  store i64 %1, ptr %6, align 8, !tbaa !35
  store i32 %2, ptr %7, align 4, !tbaa !11
  %8 = load ptr, ptr %5, align 8, !tbaa !217
  %9 = getelementptr inbounds nuw %struct.huffman, ptr %8, i32 0, i32 2
  %10 = load ptr, ptr %9, align 8, !tbaa !219
  %11 = icmp eq ptr %10, null
  br i1 %11, label %19, label %12

12:                                               ; preds = %3
  %13 = load ptr, ptr %5, align 8, !tbaa !217
  %14 = getelementptr inbounds nuw %struct.huffman, ptr %13, i32 0, i32 0
  %15 = load i32, ptr %14, align 8, !tbaa !220
  %16 = load i64, ptr %6, align 8, !tbaa !35
  %17 = trunc i64 %16 to i32
  %18 = icmp ne i32 %15, %17
  br i1 %18, label %19, label %37

19:                                               ; preds = %12, %3
  %20 = load ptr, ptr %5, align 8, !tbaa !217
  %21 = getelementptr inbounds nuw %struct.huffman, ptr %20, i32 0, i32 2
  %22 = load ptr, ptr %21, align 8, !tbaa !219
  call void @free(ptr noundef %22) #11
  %23 = load i64, ptr %6, align 8, !tbaa !35
  %24 = call noalias ptr @calloc(i64 noundef %23, i64 noundef 1) #12
  %25 = load ptr, ptr %5, align 8, !tbaa !217
  %26 = getelementptr inbounds nuw %struct.huffman, ptr %25, i32 0, i32 2
  store ptr %24, ptr %26, align 8, !tbaa !219
  %27 = load ptr, ptr %5, align 8, !tbaa !217
  %28 = getelementptr inbounds nuw %struct.huffman, ptr %27, i32 0, i32 2
  %29 = load ptr, ptr %28, align 8, !tbaa !219
  %30 = icmp eq ptr %29, null
  br i1 %30, label %31, label %32

31:                                               ; preds = %19
  store i32 -30, ptr %4, align 4
  br label %66

32:                                               ; preds = %19
  %33 = load i64, ptr %6, align 8, !tbaa !35
  %34 = trunc i64 %33 to i32
  %35 = load ptr, ptr %5, align 8, !tbaa !217
  %36 = getelementptr inbounds nuw %struct.huffman, ptr %35, i32 0, i32 0
  store i32 %34, ptr %36, align 8, !tbaa !220
  br label %43

37:                                               ; preds = %12
  %38 = load ptr, ptr %5, align 8, !tbaa !217
  %39 = getelementptr inbounds nuw %struct.huffman, ptr %38, i32 0, i32 2
  %40 = load ptr, ptr %39, align 8, !tbaa !219
  %41 = load i64, ptr %6, align 8, !tbaa !35
  %42 = mul i64 %41, 1
  call void @llvm.memset.p0.i64(ptr align 1 %40, i8 0, i64 %42, i1 false)
  br label %43

43:                                               ; preds = %37, %32
  %44 = load ptr, ptr %5, align 8, !tbaa !217
  %45 = getelementptr inbounds nuw %struct.huffman, ptr %44, i32 0, i32 6
  %46 = load ptr, ptr %45, align 8, !tbaa !221
  %47 = icmp eq ptr %46, null
  br i1 %47, label %48, label %65

48:                                               ; preds = %43
  %49 = load i32, ptr %7, align 4, !tbaa !11
  %50 = zext i32 %49 to i64
  %51 = shl i64 1, %50
  %52 = mul i64 %51, 2
  %53 = call noalias ptr @malloc(i64 noundef %52) #15
  %54 = load ptr, ptr %5, align 8, !tbaa !217
  %55 = getelementptr inbounds nuw %struct.huffman, ptr %54, i32 0, i32 6
  store ptr %53, ptr %55, align 8, !tbaa !221
  %56 = load ptr, ptr %5, align 8, !tbaa !217
  %57 = getelementptr inbounds nuw %struct.huffman, ptr %56, i32 0, i32 6
  %58 = load ptr, ptr %57, align 8, !tbaa !221
  %59 = icmp eq ptr %58, null
  br i1 %59, label %60, label %61

60:                                               ; preds = %48
  store i32 -30, ptr %4, align 4
  br label %66

61:                                               ; preds = %48
  %62 = load i32, ptr %7, align 4, !tbaa !11
  %63 = load ptr, ptr %5, align 8, !tbaa !217
  %64 = getelementptr inbounds nuw %struct.huffman, ptr %63, i32 0, i32 4
  store i32 %62, ptr %64, align 4, !tbaa !222
  br label %65

65:                                               ; preds = %61, %43
  store i32 0, ptr %4, align 4
  br label %66

66:                                               ; preds = %65, %60, %31
  %67 = load i32, ptr %4, align 4
  ret i32 %67
}