; Function Attrs: mustprogress nounwind willreturn uwtable
define internal fastcc range(i32 -30, 1) i32 @lzx_huffman_init(ptr noundef captures(none) %0, i64 noundef range(i64 -2147483392, 2147483648) %1, i32 noundef range(i32 8, 17) %2) unnamed_addr #13 {
  %4 = getelementptr inbounds nuw i8, ptr %0, i64 72
  %5 = load ptr, ptr %4, align 8, !tbaa !120
  %6 = icmp eq ptr %5, null
  br i1 %6, label %10, label %7

7:                                                ; preds = %3
  %8 = load i32, ptr %0, align 8, !tbaa !174
  %9 = trunc nsw i64 %1 to i32
  %.not = icmp eq i32 %8, %9
  br i1 %.not, label %15, label %10

10:                                               ; preds = %7, %3
  tail call void @free(ptr noundef %5) #18
  %11 = tail call noalias ptr @calloc(i64 noundef %1, i64 noundef 1) #19
  store ptr %11, ptr %4, align 8, !tbaa !120
  %12 = icmp eq ptr %11, null
  br i1 %12, label %27, label %13

13:                                               ; preds = %10
  %14 = trunc nsw i64 %1 to i32
  store i32 %14, ptr %0, align 8, !tbaa !174
  br label %16

15:                                               ; preds = %7
  tail call void @llvm.memset.p0.i64(ptr nonnull align 1 %5, i8 0, i64 %1, i1 false)
  br label %16

16:                                               ; preds = %15, %13
  %17 = getelementptr inbounds nuw i8, ptr %0, i64 96
  %18 = load ptr, ptr %17, align 8, !tbaa !121
  %19 = icmp eq ptr %18, null
  br i1 %19, label %20, label %27

20:                                               ; preds = %16
  %21 = zext nneg i32 %2 to i64
  %22 = shl nuw nsw i64 2, %21
  %23 = tail call noalias ptr @malloc(i64 noundef %22) #22
  store ptr %23, ptr %17, align 8, !tbaa !121
  %24 = icmp eq ptr %23, null
  br i1 %24, label %27, label %25

25:                                               ; preds = %20
  %26 = getelementptr inbounds nuw i8, ptr %0, i64 84
  store i32 %2, ptr %26, align 4, !tbaa !175
  br label %27

27:                                               ; preds = %16, %25, %20, %10
  %.0 = phi i32 [ -30, %10 ], [ -30, %20 ], [ 0, %25 ], [ 0, %16 ]
  ret i32 %.0
}